; Function Attrs: nounwind uwtable
define hidden i32 @lsarpc_dissect_struct_lsa_AuditFullQueryInfo(ptr noundef %0, i32 noundef %1, ptr noundef %2, ptr noundef %3, ptr noundef %4, ptr noundef %5, i32 noundef %6, i32 noundef %7) local_unnamed_addr #0 {
  %.not = icmp eq ptr %3, null
  br i1 %.not, label %13, label %9

9:                                                ; preds = %8
  %10 = tail call ptr @proto_tree_add_item(ptr noundef nonnull %3, i32 noundef %6, ptr noundef %0, i32 noundef %1, i32 noundef -1, i32 noundef 0) #5
  %11 = load i32, ptr @ett_lsarpc_lsa_AuditFullQueryInfo, align 4
  %12 = tail call ptr @proto_item_add_subtree(ptr noundef %10, i32 noundef %11) #5
  br label %13

13:                                               ; preds = %9, %8
  %.022 = phi ptr [ %10, %9 ], [ null, %8 ]
  %.0 = phi ptr [ %12, %9 ], [ null, %8 ]
  %14 = load i32, ptr @hf_lsarpc_lsa_AuditFullQueryInfo_shutdown_on_full, align 4
  %15 = tail call i32 @PIDL_dissect_uint8(ptr noundef %0, i32 noundef %1, ptr noundef %2, ptr noundef %.0, ptr noundef %4, ptr noundef %5, i32 noundef %14, i32 noundef 0) #5
  %16 = load i32, ptr @hf_lsarpc_lsa_AuditFullQueryInfo_log_is_full, align 4
  %17 = tail call i32 @PIDL_dissect_uint8(ptr noundef %0, i32 noundef %15, ptr noundef %2, ptr noundef %.0, ptr noundef %4, ptr noundef %5, i32 noundef %16, i32 noundef 0) #5
  %18 = sub i32 %17, %1
  tail call void @proto_item_set_len(ptr noundef %.022, i32 noundef %18) #5
  ret i32 %17
}